target datalayout = "e-m:e-p270:32:32-p271:32:32-p272:64:64-i64:64-i128:128-f80:128-n8:16:32:64-S128"
target triple = "x86_64-pc-linux-gnu"

%class.ElfFile = type { ptr, ptr, ptr, ptr, ptr, ptr, ptr, ptr, i32, ptr, %struct.Elf64_Ehdr }
%struct.Elf64_Ehdr = type { [16 x i8], i16, i16, i32, i64, i64, i64, i32, i16, i16, i16, i16, i16, i16 }
%"class.ElfFile::DwarfFilePath" = type <{ ptr, [4097 x i8], [3 x i8], i32, i16, [6 x i8] }>

@_ZN7ElfFile23USR_LIB_DEBUG_DIRECTORYE = hidden global ptr @.str, align 8
@.str.10 = private unnamed_addr constant [3 x i8] c"%s\00", align 1

; Function Attrs: mustprogress nounwind uwtable
define linkonce_odr hidden noundef zeroext i16 @_Z12checked_castItmET_T0_(i64 noundef %0) #1 comdat {
  %2 = alloca i64, align 8
  %3 = alloca i16, align 2
  store i64 %0, ptr %2, align 8
  %4 = load i64, ptr %2, align 8
  %5 = trunc i64 %4 to i16
  store i16 %5, ptr %3, align 2
  %6 = load i16, ptr %3, align 2
  ret i16 %6
}

; Function Attrs: mustprogress nounwind uwtable
define hidden noundef zeroext i1 @_ZN7ElfFile13DwarfFilePath20set_after_last_slashEPKc(ptr noundef nonnull align 8 dereferenceable(4114) %0, ptr noundef %1) #1 align 2 {
  %3 = alloca i1, align 1
  %4 = alloca ptr, align 8
  %5 = alloca ptr, align 8
  %6 = alloca ptr, align 8
  %7 = alloca i16, align 2
  store ptr %0, ptr %4, align 8
  store ptr %1, ptr %5, align 8
  %8 = load ptr, ptr %4, align 8
  %9 = getelementptr inbounds %"class.ElfFile::DwarfFilePath", ptr %8, i32 0, i32 1
  %10 = getelementptr inbounds [4097 x i8], ptr %9, i64 0, i64 0
  %11 = call noundef ptr @_ZN2os14file_separatorEv()
  %12 = load i8, ptr %11, align 1
  %13 = sext i8 %12 to i32
  %14 = call noundef ptr @strrchr(ptr noundef %10, i32 noundef %13) #8
  store ptr %14, ptr %6, align 8
  %15 = load ptr, ptr %6, align 8
  %16 = icmp eq ptr %15, null
  br i1 %16, label %17, label %18

17:                                               ; preds = %2
  store i1 false, ptr %3, align 1
  br label %30

18:                                               ; preds = %2
  %19 = load ptr, ptr %6, align 8
  %20 = getelementptr inbounds i8, ptr %19, i64 1
  %21 = getelementptr inbounds %"class.ElfFile::DwarfFilePath", ptr %8, i32 0, i32 1
  %22 = getelementptr inbounds [4097 x i8], ptr %21, i64 0, i64 0
  %23 = ptrtoint ptr %20 to i64
  %24 = ptrtoint ptr %22 to i64
  %25 = sub i64 %23, %24
  %26 = trunc i64 %25 to i16
  store i16 %26, ptr %7, align 2
  %27 = load i16, ptr %7, align 2
  %28 = load ptr, ptr %5, align 8
  %29 = call noundef zeroext i1 @_ZN7ElfFile13DwarfFilePath18copy_to_path_indexEtPKc(ptr noundef nonnull align 8 dereferenceable(4114) %8, i16 noundef zeroext %27, ptr noundef %28)
  store i1 %29, ptr %3, align 1
  br label %30

30:                                               ; preds = %18, %17
  %31 = load i1, ptr %3, align 1
  ret i1 %31
}

; Function Attrs: mustprogress nounwind uwtable
define hidden noundef zeroext i1 @_ZN7ElfFile13DwarfFilePath18copy_to_path_indexEtPKc(ptr noundef nonnull align 8 dereferenceable(4114) %0, i16 noundef zeroext %1, ptr noundef %2) #1 align 2 {
  %4 = alloca i1, align 1
  %5 = alloca ptr, align 8
  %6 = alloca i16, align 2
  %7 = alloca ptr, align 8
  %8 = alloca i16, align 2
  %9 = alloca i32, align 4
  store ptr %0, ptr %5, align 8
  store i16 %1, ptr %6, align 2
  store ptr %2, ptr %7, align 8
  %10 = load ptr, ptr %5, align 8
  %11 = load i16, ptr %6, align 2
  %12 = zext i16 %11 to i32
  %13 = icmp sge i32 %12, 4096
  br i1 %13, label %14, label %15

14:                                               ; preds = %3
  store i1 false, ptr %4, align 1
  br label %40

15:                                               ; preds = %3
  %16 = load i16, ptr %6, align 2
  %17 = zext i16 %16 to i32
  %18 = sub nsw i32 4097, %17
  %19 = trunc i32 %18 to i16
  store i16 %19, ptr %8, align 2
  %20 = getelementptr inbounds %"class.ElfFile::DwarfFilePath", ptr %10, i32 0, i32 1
  %21 = getelementptr inbounds [4097 x i8], ptr %20, i64 0, i64 0
  %22 = load i16, ptr %6, align 2
  %23 = zext i16 %22 to i32
  %24 = sext i32 %23 to i64
  %25 = getelementptr inbounds i8, ptr %21, i64 %24
  %26 = load i16, ptr %8, align 2
  %27 = zext i16 %26 to i64
  %28 = load ptr, ptr %7, align 8
  %29 = call i32 (ptr, i64, ptr, ...) @jio_snprintf(ptr noundef %25, i64 noundef %27, ptr noundef @.str.10, ptr noundef %28)
  store i32 %29, ptr %9, align 4
  %30 = load i32, ptr %9, align 4
  %31 = icmp slt i32 %30, 0
  br i1 %31, label %37, label %32

32:                                               ; preds = %15
  %33 = load i32, ptr %9, align 4
  %34 = load i16, ptr %8, align 2
  %35 = zext i16 %34 to i32
  %36 = icmp sge i32 %33, %35
  br i1 %36, label %37, label %38

37:                                               ; preds = %32, %15
  store i1 false, ptr %4, align 1
  br label %40

38:                                               ; preds = %32
  call void @_ZN7ElfFile13DwarfFilePath28update_null_terminator_indexEv(ptr noundef nonnull align 8 dereferenceable(4114) %10)
  %39 = call noundef zeroext i1 @_ZNK7ElfFile13DwarfFilePath16check_valid_pathEv(ptr noundef nonnull align 8 dereferenceable(4114) %10)
  store i1 %39, ptr %4, align 1
  br label %40

40:                                               ; preds = %38, %37, %14
  %41 = load i1, ptr %4, align 1
  ret i1 %41
}

; Function Attrs: mustprogress nounwind uwtable
define linkonce_odr hidden noundef zeroext i1 @_ZNK7ElfFile13DwarfFilePath16check_valid_pathEv(ptr noundef nonnull align 8 dereferenceable(4114) %0) #1 comdat align 2 {
  %2 = alloca ptr, align 8
  store ptr %0, ptr %2, align 8
  %3 = load ptr, ptr %2, align 8
  %4 = getelementptr inbounds %"class.ElfFile::DwarfFilePath", ptr %3, i32 0, i32 1
  %5 = getelementptr inbounds [4097 x i8], ptr %4, i64 0, i64 4096
  %6 = load i8, ptr %5, align 8
  %7 = sext i8 %6 to i32
  %8 = icmp eq i32 %7, 0
  ret i1 %8
}

; Function Attrs: mustprogress nounwind uwtable
define linkonce_odr hidden void @_ZN7ElfFile13DwarfFilePath28update_null_terminator_indexEv(ptr noundef nonnull align 8 dereferenceable(4114) %0) #1 comdat align 2 {
  %2 = alloca ptr, align 8
  store ptr %0, ptr %2, align 8
  %3 = load ptr, ptr %2, align 8
  %4 = getelementptr inbounds %"class.ElfFile::DwarfFilePath", ptr %3, i32 0, i32 1
  %5 = getelementptr inbounds [4097 x i8], ptr %4, i64 0, i64 0
  %6 = call i64 @strlen(ptr noundef %5) #8
  %7 = call noundef zeroext i16 @_Z12checked_castItmET_T0_(i64 noundef %6)
  %8 = getelementptr inbounds %"class.ElfFile::DwarfFilePath", ptr %3, i32 0, i32 4
  store i16 %7, ptr %8, align 8
  ret void
}

; Function Attrs: mustprogress nounwind uwtable
define linkonce_odr hidden noundef zeroext i1 @_ZN7ElfFile13DwarfFilePath29set_filename_after_last_slashEv(ptr noundef nonnull align 8 dereferenceable(4114) %0) #1 comdat align 2 {
  %2 = alloca ptr, align 8
  store ptr %0, ptr %2, align 8
  %3 = load ptr, ptr %2, align 8
  %4 = getelementptr inbounds %"class.ElfFile::DwarfFilePath", ptr %3, i32 0, i32 0
  %5 = load ptr, ptr %4, align 8
  %6 = call noundef zeroext i1 @_ZN7ElfFile13DwarfFilePath20set_after_last_slashEPKc(ptr noundef nonnull align 8 dereferenceable(4114) %3, ptr noundef %5)
  ret i1 %6
}

; Function Attrs: mustprogress nounwind uwtable
define hidden noundef zeroext i1 @_ZN7ElfFile13DwarfFilePath6appendEPKc(ptr noundef nonnull align 8 dereferenceable(4114) %0, ptr noundef %1) #1 align 2 {
  %3 = alloca ptr, align 8
  %4 = alloca ptr, align 8
  store ptr %0, ptr %3, align 8
  store ptr %1, ptr %4, align 8
  %5 = load ptr, ptr %3, align 8
  %6 = getelementptr inbounds %"class.ElfFile::DwarfFilePath", ptr %5, i32 0, i32 4
  %7 = load i16, ptr %6, align 8
  %8 = load ptr, ptr %4, align 8
  %9 = call noundef zeroext i1 @_ZN7ElfFile13DwarfFilePath18copy_to_path_indexEtPKc(ptr noundef nonnull align 8 dereferenceable(4114) %5, i16 noundef zeroext %7, ptr noundef %8)
  ret i1 %9
}

; Function Attrs: mustprogress nounwind uwtable
define hidden noundef zeroext i1 @_ZN7ElfFile13DwarfFilePath3setEPKc(ptr noundef nonnull align 8 dereferenceable(4114) %0, ptr noundef %1) #1 align 2 {
  %3 = alloca i1, align 1
  %4 = alloca ptr, align 8
  %5 = alloca ptr, align 8
  %6 = alloca i32, align 4
  store ptr %0, ptr %4, align 8
  store ptr %1, ptr %5, align 8
  %7 = load ptr, ptr %4, align 8
  %8 = getelementptr inbounds %"class.ElfFile::DwarfFilePath", ptr %7, i32 0, i32 1
  %9 = getelementptr inbounds [4097 x i8], ptr %8, i64 0, i64 0
  %10 = load ptr, ptr %5, align 8
  %11 = call i32 (ptr, i64, ptr, ...) @jio_snprintf(ptr noundef %9, i64 noundef 4097, ptr noundef @.str.10, ptr noundef %10)
  store i32 %11, ptr %6, align 4
  %12 = load i32, ptr %6, align 4
  %13 = icmp slt i32 %12, 0
  br i1 %13, label %17, label %14

14:                                               ; preds = %2
  %15 = load i32, ptr %6, align 4
  %16 = icmp sge i32 %15, 4097
  br i1 %16, label %17, label %18

17:                                               ; preds = %14, %2
  store i1 false, ptr %3, align 1
  br label %20

18:                                               ; preds = %14
  call void @_ZN7ElfFile13DwarfFilePath28update_null_terminator_indexEv(ptr noundef nonnull align 8 dereferenceable(4114) %7)
  %19 = call noundef zeroext i1 @_ZNK7ElfFile13DwarfFilePath16check_valid_pathEv(ptr noundef nonnull align 8 dereferenceable(4114) %7)
  store i1 %19, ptr %3, align 1
  br label %20

20:                                               ; preds = %18, %17
  %21 = load i1, ptr %3, align 1
  ret i1 %21
}

; Function Attrs: mustprogress nounwind uwtable
define hidden noundef zeroext i1 @_ZN7ElfFile34load_dwarf_file_from_usr_lib_debugERNS_13DwarfFilePathE(ptr noundef nonnull align 8 dereferenceable(144) %0, ptr noundef nonnull align 8 dereferenceable(4114) %1) #1 align 2 {
  %3 = alloca i1, align 1
  %4 = alloca ptr, align 8
  %5 = alloca ptr, align 8
  store ptr %0, ptr %4, align 8
  store ptr %1, ptr %5, align 8
  %6 = load ptr, ptr %4, align 8
  %7 = load ptr, ptr %5, align 8
  %8 = load ptr, ptr @_ZN7ElfFile23USR_LIB_DEBUG_DIRECTORYE, align 8
  %9 = call noundef zeroext i1 @_ZN7ElfFile13DwarfFilePath3setEPKc(ptr noundef nonnull align 8 dereferenceable(4114) %7, ptr noundef %8)
  br i1 %9, label %10, label %18

10:                                               ; preds = %2
  %11 = load ptr, ptr %5, align 8
  %12 = getelementptr inbounds %class.ElfFile, ptr %6, i32 0, i32 2
  %13 = load ptr, ptr %12, align 8
  %14 = call noundef zeroext i1 @_ZN7ElfFile13DwarfFilePath6appendEPKc(ptr noundef nonnull align 8 dereferenceable(4114) %11, ptr noundef %13)
  br i1 %14, label %15, label %18

15:                                               ; preds = %10
  %16 = load ptr, ptr %5, align 8
  %17 = call noundef zeroext i1 @_ZN7ElfFile13DwarfFilePath29set_filename_after_last_slashEv(ptr noundef nonnull align 8 dereferenceable(4114) %16)
  br i1 %17, label %19, label %18

18:                                               ; preds = %15, %10, %2
  store i1 false, ptr %3, align 1
  br label %22

19:                                               ; preds = %15
  %20 = load ptr, ptr %5, align 8
  %21 = call noundef zeroext i1 @_ZN7ElfFile25open_valid_debuginfo_fileERKNS_13DwarfFilePathE(ptr noundef nonnull align 8 dereferenceable(144) %6, ptr noundef nonnull align 8 dereferenceable(4114) %20)
  store i1 %21, ptr %3, align 1
  br label %22

22:                                               ; preds = %19, %18
  %23 = load i1, ptr %3, align 1
  ret i1 %23
}