; Function Attrs: mustprogress nounwind uwtable
define hidden noundef zeroext i1 @_ZN7ElfFile34load_dwarf_file_from_usr_lib_debugERNS_13DwarfFilePathE(ptr nocapture noundef nonnull align 8 dereferenceable(144) %0, ptr noundef nonnull align 8 dereferenceable(4114) %1) local_unnamed_addr #0 align 2 {
  %3 = load ptr, ptr @_ZN7ElfFile23USR_LIB_DEBUG_DIRECTORYE, align 8
  %4 = getelementptr inbounds i8, ptr %1, i64 8
  %5 = tail call i32 (ptr, i64, ptr, ...) @jio_snprintf(ptr noundef nonnull %4, i64 noundef 4097, ptr noundef nonnull @.str.10, ptr noundef %3) #15
  %or.cond.i = icmp ugt i32 %5, 4096
  br i1 %or.cond.i, label %_ZN7ElfFile13DwarfFilePath3setEPKc.exit.thread, label %_ZN7ElfFile13DwarfFilePath3setEPKc.exit

_ZN7ElfFile13DwarfFilePath3setEPKc.exit:          ; preds = %2
  %6 = tail call i64 @strlen(ptr noundef nonnull dereferenceable(1) %4) #16
  %7 = trunc i64 %6 to i16
  %8 = getelementptr inbounds i8, ptr %1, i64 4112
  store i16 %7, ptr %8, align 8
  %9 = getelementptr inbounds i8, ptr %1, i64 4104
  %10 = load i8, ptr %9, align 8
  %11 = icmp ne i8 %10, 0
  %12 = icmp ugt i16 %7, 4095
  %or.cond = select i1 %11, i1 true, i1 %12
  br i1 %or.cond, label %_ZN7ElfFile13DwarfFilePath3setEPKc.exit.thread, label %13

13:                                               ; preds = %_ZN7ElfFile13DwarfFilePath3setEPKc.exit
  %14 = getelementptr inbounds i8, ptr %0, i64 16
  %15 = load ptr, ptr %14, align 8
  %16 = sub nuw nsw i16 4097, %7
  %17 = and i64 %6, 4095
  %18 = getelementptr inbounds i8, ptr %4, i64 %17
  %19 = zext nneg i16 %16 to i64
  %20 = tail call i32 (ptr, i64, ptr, ...) @jio_snprintf(ptr noundef nonnull %18, i64 noundef %19, ptr noundef nonnull @.str.10, ptr noundef %15) #15
  %21 = icmp sgt i32 %20, -1
  %22 = zext nneg i16 %16 to i32
  %.not.i.i = icmp slt i32 %20, %22
  %or.cond.i.i = select i1 %21, i1 %.not.i.i, i1 false
  br i1 %or.cond.i.i, label %_ZN7ElfFile13DwarfFilePath6appendEPKc.exit, label %_ZN7ElfFile13DwarfFilePath3setEPKc.exit.thread

_ZN7ElfFile13DwarfFilePath6appendEPKc.exit:       ; preds = %13
  %23 = tail call i64 @strlen(ptr noundef nonnull dereferenceable(1) %4) #16
  %24 = trunc i64 %23 to i16
  store i16 %24, ptr %8, align 8
  %25 = load i8, ptr %9, align 8
  %26 = icmp eq i8 %25, 0
  br i1 %26, label %27, label %_ZN7ElfFile13DwarfFilePath3setEPKc.exit.thread

27:                                               ; preds = %_ZN7ElfFile13DwarfFilePath6appendEPKc.exit
  %28 = load ptr, ptr %1, align 8
  %29 = tail call noundef ptr @_ZN2os14file_separatorEv() #15
  %30 = load i8, ptr %29, align 1
  %31 = sext i8 %30 to i32
  %32 = tail call noundef ptr @strrchr(ptr noundef nonnull dereferenceable(1) %4, i32 noundef %31) #16
  %33 = icmp eq ptr %32, null
  br i1 %33, label %_ZN7ElfFile13DwarfFilePath3setEPKc.exit.thread, label %34

34:                                               ; preds = %27
  %35 = getelementptr inbounds i8, ptr %32, i64 1
  %36 = ptrtoint ptr %35 to i64
  %37 = ptrtoint ptr %4 to i64
  %38 = sub i64 %36, %37
  %39 = trunc i64 %38 to i16
  %40 = icmp ugt i16 %39, 4095
  br i1 %40, label %_ZN7ElfFile13DwarfFilePath3setEPKc.exit.thread, label %41

41:                                               ; preds = %34
  %42 = sub nuw nsw i16 4097, %39
  %43 = and i64 %38, 4095
  %44 = getelementptr inbounds i8, ptr %4, i64 %43
  %45 = zext nneg i16 %42 to i64
  %46 = tail call i32 (ptr, i64, ptr, ...) @jio_snprintf(ptr noundef nonnull %44, i64 noundef %45, ptr noundef nonnull @.str.10, ptr noundef %28) #15
  %47 = icmp sgt i32 %46, -1
  %48 = zext nneg i16 %42 to i32
  %.not.i.i.i = icmp slt i32 %46, %48
  %or.cond.i.i.i = select i1 %47, i1 %.not.i.i.i, i1 false
  br i1 %or.cond.i.i.i, label %_ZN7ElfFile13DwarfFilePath29set_filename_after_last_slashEv.exit, label %_ZN7ElfFile13DwarfFilePath3setEPKc.exit.thread

_ZN7ElfFile13DwarfFilePath29set_filename_after_last_slashEv.exit: ; preds = %41
  %49 = tail call i64 @strlen(ptr noundef nonnull dereferenceable(1) %4) #16
  %50 = trunc i64 %49 to i16
  store i16 %50, ptr %8, align 8
  %51 = load i8, ptr %9, align 8
  %52 = icmp eq i8 %51, 0
  br i1 %52, label %53, label %_ZN7ElfFile13DwarfFilePath3setEPKc.exit.thread

53:                                               ; preds = %_ZN7ElfFile13DwarfFilePath29set_filename_after_last_slashEv.exit
  %54 = tail call noundef zeroext i1 @_ZN7ElfFile25open_valid_debuginfo_fileERKNS_13DwarfFilePathE(ptr noundef nonnull align 8 dereferenceable(144) %0, ptr noundef nonnull align 8 dereferenceable(4114) %1)
  br label %_ZN7ElfFile13DwarfFilePath3setEPKc.exit.thread

_ZN7ElfFile13DwarfFilePath3setEPKc.exit.thread:   ; preds = %41, %34, %27, %13, %2, %_ZN7ElfFile13DwarfFilePath3setEPKc.exit, %_ZN7ElfFile13DwarfFilePath6appendEPKc.exit, %_ZN7ElfFile13DwarfFilePath29set_filename_after_last_slashEv.exit, %53
  %.0 = phi i1 [ %54, %53 ], [ false, %_ZN7ElfFile13DwarfFilePath29set_filename_after_last_slashEv.exit ], [ false, %_ZN7ElfFile13DwarfFilePath6appendEPKc.exit ], [ false, %_ZN7ElfFile13DwarfFilePath3setEPKc.exit ], [ false, %2 ], [ false, %13 ], [ false, %27 ], [ false, %34 ], [ false, %41 ]
  ret i1 %.0
}